; ModuleID = '57/366.c'
source_filename = "57/366.c"
target datalayout = "e-m:e-p270:32:32-p271:32:32-p272:64:64-i64:64-f80:128-n8:16:32:64-S128"
target triple = "x86_64-pc-linux-gnu"

@.str = private unnamed_addr constant [3 x i8] c"%d\00", align 1
@.str.1 = private unnamed_addr constant [3 x i8] c"%s\00", align 1
@.str.2 = private unnamed_addr constant [3 x i8] c"%c\00", align 1
@.str.3 = private unnamed_addr constant [4 x i8] c"%c\0A\00", align 1

; Function Attrs: noinline nounwind uwtable
define dso_local void @main() #0 {
  %1 = alloca [50 x [50 x i8]], align 16
  %2 = alloca i32, align 4
  %3 = alloca [50 x i32], align 16
  %4 = alloca i32, align 4
  %5 = alloca i32, align 4
  %6 = call i32 (i8*, ...) @__isoc99_scanf(i8* getelementptr inbounds ([3 x i8], [3 x i8]* @.str, i64 0, i64 0), i32* %5)
  store i32 0, i32* %2, align 4
  br label %7

7:                                                ; preds = %26, %0
  %8 = load i32, i32* %2, align 4
  %9 = load i32, i32* %5, align 4
  %10 = icmp slt i32 %8, %9
  br i1 %10, label %11, label %29

11:                                               ; preds = %7
  %12 = load i32, i32* %2, align 4
  %13 = sext i32 %12 to i64
  %14 = getelementptr inbounds [50 x [50 x i8]], [50 x [50 x i8]]* %1, i64 0, i64 %13
  %15 = getelementptr inbounds [50 x i8], [50 x i8]* %14, i64 0, i64 0
  %16 = call i32 (i8*, ...) @__isoc99_scanf(i8* getelementptr inbounds ([3 x i8], [3 x i8]* @.str.1, i64 0, i64 0), i8* %15)
  %17 = load i32, i32* %2, align 4
  %18 = sext i32 %17 to i64
  %19 = getelementptr inbounds [50 x [50 x i8]], [50 x [50 x i8]]* %1, i64 0, i64 %18
  %20 = getelementptr inbounds [50 x i8], [50 x i8]* %19, i64 0, i64 0
  %21 = call i64 @strlen(i8* %20) #3
  %22 = trunc i64 %21 to i32
  %23 = load i32, i32* %2, align 4
  %24 = sext i32 %23 to i64
  %25 = getelementptr inbounds [50 x i32], [50 x i32]* %3, i64 0, i64 %24
  store i32 %22, i32* %25, align 4
  br label %26

26:                                               ; preds = %11
  %27 = load i32, i32* %2, align 4
  %28 = add nsw i32 %27, 1
  store i32 %28, i32* %2, align 4
  br label %7

29:                                               ; preds = %7
  store i32 0, i32* %2, align 4
  br label %30

30:                                               ; preds = %241, %29
  %31 = load i32, i32* %2, align 4
  %32 = load i32, i32* %5, align 4
  %33 = icmp slt i32 %31, %32
  br i1 %33, label %34, label %244

34:                                               ; preds = %30
  %35 = load i32, i32* %2, align 4
  %36 = sext i32 %35 to i64
  %37 = getelementptr inbounds [50 x [50 x i8]], [50 x [50 x i8]]* %1, i64 0, i64 %36
  %38 = load i32, i32* %2, align 4
  %39 = sext i32 %38 to i64
  %40 = getelementptr inbounds [50 x i32], [50 x i32]* %3, i64 0, i64 %39
  %41 = load i32, i32* %40, align 4
  %42 = sub nsw i32 %41, 2
  %43 = sext i32 %42 to i64
  %44 = getelementptr inbounds [50 x i8], [50 x i8]* %37, i64 0, i64 %43
  %45 = load i8, i8* %44, align 1
  %46 = sext i8 %45 to i32
  %47 = icmp eq i32 %46, 101
  br i1 %47, label %48, label %98

48:                                               ; preds = %34
  %49 = load i32, i32* %2, align 4
  %50 = sext i32 %49 to i64
  %51 = getelementptr inbounds [50 x [50 x i8]], [50 x [50 x i8]]* %1, i64 0, i64 %50
  %52 = load i32, i32* %2, align 4
  %53 = sext i32 %52 to i64
  %54 = getelementptr inbounds [50 x i32], [50 x i32]* %3, i64 0, i64 %53
  %55 = load i32, i32* %54, align 4
  %56 = sub nsw i32 %55, 1
  %57 = sext i32 %56 to i64
  %58 = getelementptr inbounds [50 x i8], [50 x i8]* %51, i64 0, i64 %57
  %59 = load i8, i8* %58, align 1
  %60 = sext i8 %59 to i32
  %61 = icmp eq i32 %60, 114
  br i1 %61, label %62, label %98

62:                                               ; preds = %48
  store i32 0, i32* %4, align 4
  br label %63

63:                                               ; preds = %81, %62
  %64 = load i32, i32* %4, align 4
  %65 = load i32, i32* %2, align 4
  %66 = sext i32 %65 to i64
  %67 = getelementptr inbounds [50 x i32], [50 x i32]* %3, i64 0, i64 %66
  %68 = load i32, i32* %67, align 4
  %69 = sub nsw i32 %68, 3
  %70 = icmp slt i32 %64, %69
  br i1 %70, label %71, label %84

71:                                               ; preds = %63
  %72 = load i32, i32* %2, align 4
  %73 = sext i32 %72 to i64
  %74 = getelementptr inbounds [50 x [50 x i8]], [50 x [50 x i8]]* %1, i64 0, i64 %73
  %75 = load i32, i32* %4, align 4
  %76 = sext i32 %75 to i64
  %77 = getelementptr inbounds [50 x i8], [50 x i8]* %74, i64 0, i64 %76
  %78 = load i8, i8* %77, align 1
  %79 = sext i8 %78 to i32
  %80 = call i32 (i8*, ...) @printf(i8* getelementptr inbounds ([3 x i8], [3 x i8]* @.str.2, i64 0, i64 0), i32 %79)
  br label %81

81:                                               ; preds = %71
  %82 = load i32, i32* %4, align 4
  %83 = add nsw i32 %82, 1
  store i32 %83, i32* %4, align 4
  br label %63

84:                                               ; preds = %63
  %85 = load i32, i32* %2, align 4
  %86 = sext i32 %85 to i64
  %87 = getelementptr inbounds [50 x [50 x i8]], [50 x [50 x i8]]* %1, i64 0, i64 %86
  %88 = load i32, i32* %2, align 4
  %89 = sext i32 %88 to i64
  %90 = getelementptr inbounds [50 x i32], [50 x i32]* %3, i64 0, i64 %89
  %91 = load i32, i32* %90, align 4
  %92 = sub nsw i32 %91, 3
  %93 = sext i32 %92 to i64
  %94 = getelementptr inbounds [50 x i8], [50 x i8]* %87, i64 0, i64 %93
  %95 = load i8, i8* %94, align 1
  %96 = sext i8 %95 to i32
  %97 = call i32 (i8*, ...) @printf(i8* getelementptr inbounds ([4 x i8], [4 x i8]* @.str.3, i64 0, i64 0), i32 %96)
  br label %98

98:                                               ; preds = %84, %48, %34
  %99 = load i32, i32* %2, align 4
  %100 = sext i32 %99 to i64
  %101 = getelementptr inbounds [50 x [50 x i8]], [50 x [50 x i8]]* %1, i64 0, i64 %100
  %102 = load i32, i32* %2, align 4
  %103 = sext i32 %102 to i64
  %104 = getelementptr inbounds [50 x i32], [50 x i32]* %3, i64 0, i64 %103
  %105 = load i32, i32* %104, align 4
  %106 = sub nsw i32 %105, 2
  %107 = sext i32 %106 to i64
  %108 = getelementptr inbounds [50 x i8], [50 x i8]* %101, i64 0, i64 %107
  %109 = load i8, i8* %108, align 1
  %110 = sext i8 %109 to i32
  %111 = icmp eq i32 %110, 108
  br i1 %111, label %112, label %162

112:                                              ; preds = %98
  %113 = load i32, i32* %2, align 4
  %114 = sext i32 %113 to i64
  %115 = getelementptr inbounds [50 x [50 x i8]], [50 x [50 x i8]]* %1, i64 0, i64 %114
  %116 = load i32, i32* %2, align 4
  %117 = sext i32 %116 to i64
  %118 = getelementptr inbounds [50 x i32], [50 x i32]* %3, i64 0, i64 %117
  %119 = load i32, i32* %118, align 4
  %120 = sub nsw i32 %119, 1
  %121 = sext i32 %120 to i64
  %122 = getelementptr inbounds [50 x i8], [50 x i8]* %115, i64 0, i64 %121
  %123 = load i8, i8* %122, align 1
  %124 = sext i8 %123 to i32
  %125 = icmp eq i32 %124, 121
  br i1 %125, label %126, label %162

126:                                              ; preds = %112
  store i32 0, i32* %4, align 4
  br label %127

127:                                              ; preds = %145, %126
  %128 = load i32, i32* %4, align 4
  %129 = load i32, i32* %2, align 4
  %130 = sext i32 %129 to i64
  %131 = getelementptr inbounds [50 x i32], [50 x i32]* %3, i64 0, i64 %130
  %132 = load i32, i32* %131, align 4
  %133 = sub nsw i32 %132, 3
  %134 = icmp slt i32 %128, %133
  br i1 %134, label %135, label %148

135:                                              ; preds = %127
  %136 = load i32, i32* %2, align 4
  %137 = sext i32 %136 to i64
  %138 = getelementptr inbounds [50 x [50 x i8]], [50 x [50 x i8]]* %1, i64 0, i64 %137
  %139 = load i32, i32* %4, align 4
  %140 = sext i32 %139 to i64
  %141 = getelementptr inbounds [50 x i8], [50 x i8]* %138, i64 0, i64 %140
  %142 = load i8, i8* %141, align 1
  %143 = sext i8 %142 to i32
  %144 = call i32 (i8*, ...) @printf(i8* getelementptr inbounds ([3 x i8], [3 x i8]* @.str.2, i64 0, i64 0), i32 %143)
  br label %145

145:                                              ; preds = %135
  %146 = load i32, i32* %4, align 4
  %147 = add nsw i32 %146, 1
  store i32 %147, i32* %4, align 4
  br label %127

148:                                              ; preds = %127
  %149 = load i32, i32* %2, align 4
  %150 = sext i32 %149 to i64
  %151 = getelementptr inbounds [50 x [50 x i8]], [50 x [50 x i8]]* %1, i64 0, i64 %150
  %152 = load i32, i32* %2, align 4
  %153 = sext i32 %152 to i64
  %154 = getelementptr inbounds [50 x i32], [50 x i32]* %3, i64 0, i64 %153
  %155 = load i32, i32* %154, align 4
  %156 = sub nsw i32 %155, 3
  %157 = sext i32 %156 to i64
  %158 = getelementptr inbounds [50 x i8], [50 x i8]* %151, i64 0, i64 %157
  %159 = load i8, i8* %158, align 1
  %160 = sext i8 %159 to i32
  %161 = call i32 (i8*, ...) @printf(i8* getelementptr inbounds ([4 x i8], [4 x i8]* @.str.3, i64 0, i64 0), i32 %160)
  br label %162

162:                                              ; preds = %148, %112, %98
  %163 = load i32, i32* %2, align 4
  %164 = sext i32 %163 to i64
  %165 = getelementptr inbounds [50 x [50 x i8]], [50 x [50 x i8]]* %1, i64 0, i64 %164
  %166 = load i32, i32* %2, align 4
  %167 = sext i32 %166 to i64
  %168 = getelementptr inbounds [50 x i32], [50 x i32]* %3, i64 0, i64 %167
  %169 = load i32, i32* %168, align 4
  %170 = sub nsw i32 %169, 3
  %171 = sext i32 %170 to i64
  %172 = getelementptr inbounds [50 x i8], [50 x i8]* %165, i64 0, i64 %171
  %173 = load i8, i8* %172, align 1
  %174 = sext i8 %173 to i32
  %175 = icmp eq i32 %174, 105
  br i1 %175, label %176, label %240

176:                                              ; preds = %162
  %177 = load i32, i32* %2, align 4
  %178 = sext i32 %177 to i64
  %179 = getelementptr inbounds [50 x [50 x i8]], [50 x [50 x i8]]* %1, i64 0, i64 %178
  %180 = load i32, i32* %2, align 4
  %181 = sext i32 %180 to i64
  %182 = getelementptr inbounds [50 x i32], [50 x i32]* %3, i64 0, i64 %181
  %183 = load i32, i32* %182, align 4
  %184 = sub nsw i32 %183, 2
  %185 = sext i32 %184 to i64
  %186 = getelementptr inbounds [50 x i8], [50 x i8]* %179, i64 0, i64 %185
  %187 = load i8, i8* %186, align 1
  %188 = sext i8 %187 to i32
  %189 = icmp eq i32 %188, 110
  br i1 %189, label %190, label %240

190:                                              ; preds = %176
  %191 = load i32, i32* %2, align 4
  %192 = sext i32 %191 to i64
  %193 = getelementptr inbounds [50 x [50 x i8]], [50 x [50 x i8]]* %1, i64 0, i64 %192
  %194 = load i32, i32* %2, align 4
  %195 = sext i32 %194 to i64
  %196 = getelementptr inbounds [50 x i32], [50 x i32]* %3, i64 0, i64 %195
  %197 = load i32, i32* %196, align 4
  %198 = sub nsw i32 %197, 1
  %199 = sext i32 %198 to i64
  %200 = getelementptr inbounds [50 x i8], [50 x i8]* %193, i64 0, i64 %199
  %201 = load i8, i8* %200, align 1
  %202 = sext i8 %201 to i32
  %203 = icmp eq i32 %202, 103
  br i1 %203, label %204, label %240

204:                                              ; preds = %190
  store i32 0, i32* %4, align 4
  br label %205

205:                                              ; preds = %223, %204
  %206 = load i32, i32* %4, align 4
  %207 = load i32, i32* %2, align 4
  %208 = sext i32 %207 to i64
  %209 = getelementptr inbounds [50 x i32], [50 x i32]* %3, i64 0, i64 %208
  %210 = load i32, i32* %209, align 4
  %211 = sub nsw i32 %210, 4
  %212 = icmp slt i32 %206, %211
  br i1 %212, label %213, label %226

213:                                              ; preds = %205
  %214 = load i32, i32* %2, align 4
  %215 = sext i32 %214 to i64
  %216 = getelementptr inbounds [50 x [50 x i8]], [50 x [50 x i8]]* %1, i64 0, i64 %215
  %217 = load i32, i32* %4, align 4
  %218 = sext i32 %217 to i64
  %219 = getelementptr inbounds [50 x i8], [50 x i8]* %216, i64 0, i64 %218
  %220 = load i8, i8* %219, align 1
  %221 = sext i8 %220 to i32
  %222 = call i32 (i8*, ...) @printf(i8* getelementptr inbounds ([3 x i8], [3 x i8]* @.str.2, i64 0, i64 0), i32 %221)
  br label %223

223:                                              ; preds = %213
  %224 = load i32, i32* %4, align 4
  %225 = add nsw i32 %224, 1
  store i32 %225, i32* %4, align 4
  br label %205

226:                                              ; preds = %205
  %227 = load i32, i32* %2, align 4
  %228 = sext i32 %227 to i64
  %229 = getelementptr inbounds [50 x [50 x i8]], [50 x [50 x i8]]* %1, i64 0, i64 %228
  %230 = load i32, i32* %2, align 4
  %231 = sext i32 %230 to i64
  %232 = getelementptr inbounds [50 x i32], [50 x i32]* %3, i64 0, i64 %231
  %233 = load i32, i32* %232, align 4
  %234 = sub nsw i32 %233, 4
  %235 = sext i32 %234 to i64
  %236 = getelementptr inbounds [50 x i8], [50 x i8]* %229, i64 0, i64 %235
  %237 = load i8, i8* %236, align 1
  %238 = sext i8 %237 to i32
  %239 = call i32 (i8*, ...) @printf(i8* getelementptr inbounds ([4 x i8], [4 x i8]* @.str.3, i64 0, i64 0), i32 %238)
  br label %240

240:                                              ; preds = %226, %190, %176, %162
  br label %241

241:                                              ; preds = %240
  %242 = load i32, i32* %2, align 4
  %243 = add nsw i32 %242, 1
  store i32 %243, i32* %2, align 4
  br label %30

244:                                              ; preds = %30
  ret void
}

declare dso_local i32 @__isoc99_scanf(i8*, ...) #1

; Function Attrs: nounwind readonly
declare dso_local i64 @strlen(i8*) #2

declare dso_local i32 @printf(i8*, ...) #1


!llvm.module.flags = !{!0}
!llvm.ident = !{!1}

!0 = !{i32 1, !"wchar_size", i32 4}
!1 = !{!"clang version 10.0.0-4ubuntu1 "}
